; Function Attrs: mustprogress uwtable
define hidden noundef zeroext i1 @_ZNK12old_interval5emptyEv(ptr noundef nonnull align 8 dereferenceable(112) %0) local_unnamed_addr #3 align 2 {
  %2 = getelementptr inbounds nuw i8, ptr %0, i64 8
  %3 = load i32, ptr %2, align 8, !tbaa !3
  %.not = icmp eq i32 %3, 1
  br i1 %.not, label %4, label %98

4:                                                ; preds = %1
  %5 = getelementptr inbounds nuw i8, ptr %0, i64 48
  %6 = load i32, ptr %5, align 8, !tbaa !3
  %.not2 = icmp eq i32 %6, 1
  br i1 %.not2, label %7, label %98

7:                                                ; preds = %4
  %8 = getelementptr inbounds nuw i8, ptr %0, i64 16
  %9 = getelementptr inbounds nuw i8, ptr %0, i64 56
  %10 = load ptr, ptr @_ZN8rational13g_mpq_managerE, align 8, !tbaa !14
  %11 = getelementptr inbounds nuw i8, ptr %0, i64 32
  %12 = getelementptr inbounds nuw i8, ptr %0, i64 36
  %13 = load i8, ptr %12, align 4
  %14 = and i8 %13, 1
  %15 = icmp eq i8 %14, 0
  %16 = load i32, ptr %11, align 8
  %17 = icmp eq i32 %16, 1
  %18 = select i1 %15, i1 %17, i1 false
  br i1 %18, label %19, label %42

19:                                               ; preds = %7
  %20 = getelementptr inbounds nuw i8, ptr %0, i64 72
  %21 = getelementptr inbounds nuw i8, ptr %0, i64 76
  %22 = load i8, ptr %21, align 4
  %23 = and i8 %22, 1
  %24 = icmp eq i8 %23, 0
  %25 = load i32, ptr %20, align 8
  %26 = icmp eq i32 %25, 1
  %27 = select i1 %24, i1 %26, i1 false
  br i1 %27, label %28, label %42

28:                                               ; preds = %19
  %29 = getelementptr inbounds nuw i8, ptr %0, i64 20
  %30 = load i8, ptr %29, align 4
  %31 = and i8 %30, 1
  %32 = icmp eq i8 %31, 0
  br i1 %32, label %33, label %_ZltRK11ext_numeralS1_.exit

33:                                               ; preds = %28
  %34 = getelementptr inbounds nuw i8, ptr %0, i64 60
  %35 = load i8, ptr %34, align 4
  %36 = and i8 %35, 1
  %37 = icmp eq i8 %36, 0
  br i1 %37, label %38, label %_ZltRK11ext_numeralS1_.exit

38:                                               ; preds = %33
  %39 = load i32, ptr %8, align 8, !tbaa !16
  %40 = load i32, ptr %9, align 8, !tbaa !16
  %41 = icmp slt i32 %39, %40
  br i1 %41, label %98, label %46

42:                                               ; preds = %19, %7
  %43 = tail call noundef zeroext i1 @_ZN11mpq_managerILb1EE6rat_ltERK3mpqS3_(ptr noundef nonnull align 8 dereferenceable(728) %10, ptr noundef nonnull align 8 dereferenceable(32) %8, ptr noundef nonnull align 8 dereferenceable(32) %9)
  br i1 %43, label %98, label %46

_ZltRK11ext_numeralS1_.exit:                      ; preds = %28, %33
  %44 = tail call noundef i32 @_ZN11mpz_managerILb1EE11big_compareERK3mpzS3_(ptr noundef nonnull align 8 dereferenceable(728) %10, ptr noundef nonnull align 8 dereferenceable(32) %8, ptr noundef nonnull align 8 dereferenceable(32) %9)
  %45 = icmp slt i32 %44, 0
  br i1 %45, label %98, label %46

46:                                               ; preds = %38, %42, %_ZltRK11ext_numeralS1_.exit
  %47 = load i32, ptr %5, align 8, !tbaa !3
  %.not.i.i = icmp eq i32 %47, 1
  br i1 %.not.i.i, label %53, label %48

48:                                               ; preds = %46
  %49 = icmp eq i32 %47, 0
  %50 = load i32, ptr %2, align 8
  %51 = icmp ne i32 %50, 0
  %52 = select i1 %49, i1 %51, i1 false
  br i1 %52, label %98, label %90

53:                                               ; preds = %46
  %54 = load i32, ptr %2, align 8, !tbaa !3
  switch i32 %54, label %98 [
    i32 1, label %55
    i32 0, label %90
  ]

55:                                               ; preds = %53
  %56 = load ptr, ptr @_ZN8rational13g_mpq_managerE, align 8, !tbaa !14
  %57 = getelementptr inbounds nuw i8, ptr %0, i64 72
  %58 = getelementptr inbounds nuw i8, ptr %0, i64 76
  %59 = load i8, ptr %58, align 4
  %60 = and i8 %59, 1
  %61 = icmp eq i8 %60, 0
  %62 = load i32, ptr %57, align 8
  %63 = icmp eq i32 %62, 1
  %64 = select i1 %61, i1 %63, i1 false
  br i1 %64, label %65, label %86

65:                                               ; preds = %55
  %66 = load i8, ptr %12, align 4
  %67 = and i8 %66, 1
  %68 = icmp eq i8 %67, 0
  %69 = load i32, ptr %11, align 8
  %70 = icmp eq i32 %69, 1
  %71 = select i1 %68, i1 %70, i1 false
  br i1 %71, label %72, label %86

72:                                               ; preds = %65
  %73 = getelementptr inbounds nuw i8, ptr %0, i64 60
  %74 = load i8, ptr %73, align 4
  %75 = and i8 %74, 1
  %76 = icmp eq i8 %75, 0
  br i1 %76, label %77, label %_ZgtRK11ext_numeralS1_.exit

77:                                               ; preds = %72
  %78 = getelementptr inbounds nuw i8, ptr %0, i64 20
  %79 = load i8, ptr %78, align 4
  %80 = and i8 %79, 1
  %81 = icmp eq i8 %80, 0
  br i1 %81, label %82, label %_ZgtRK11ext_numeralS1_.exit

82:                                               ; preds = %77
  %83 = load i32, ptr %9, align 8, !tbaa !16
  %84 = load i32, ptr %8, align 8, !tbaa !16
  %85 = icmp slt i32 %83, %84
  br i1 %85, label %98, label %90

86:                                               ; preds = %65, %55
  %87 = tail call noundef zeroext i1 @_ZN11mpq_managerILb1EE6rat_ltERK3mpqS3_(ptr noundef nonnull align 8 dereferenceable(728) %56, ptr noundef nonnull align 8 dereferenceable(32) %9, ptr noundef nonnull align 8 dereferenceable(32) %8)
  br i1 %87, label %98, label %90

_ZgtRK11ext_numeralS1_.exit:                      ; preds = %72, %77
  %88 = tail call noundef i32 @_ZN11mpz_managerILb1EE11big_compareERK3mpzS3_(ptr noundef nonnull align 8 dereferenceable(728) %56, ptr noundef nonnull align 8 dereferenceable(32) %9, ptr noundef nonnull align 8 dereferenceable(32) %8)
  %89 = icmp slt i32 %88, 0
  br i1 %89, label %98, label %90

90:                                               ; preds = %53, %82, %86, %48, %_ZgtRK11ext_numeralS1_.exit
  %91 = getelementptr inbounds nuw i8, ptr %0, i64 88
  %92 = load i8, ptr %91, align 8, !tbaa !32, !range !39, !noundef !40
  %93 = trunc nuw i8 %92 to i1
  br i1 %93, label %98, label %94

94:                                               ; preds = %90
  %95 = getelementptr inbounds nuw i8, ptr %0, i64 89
  %96 = load i8, ptr %95, align 1, !tbaa !36, !range !39, !noundef !40
  %97 = trunc nuw i8 %96 to i1
  br label %98

98:                                               ; preds = %53, %82, %86, %48, %38, %42, %_ZgtRK11ext_numeralS1_.exit, %90, %94, %_ZltRK11ext_numeralS1_.exit, %1, %4
  %.0 = phi i1 [ false, %4 ], [ false, %1 ], [ false, %_ZltRK11ext_numeralS1_.exit ], [ true, %90 ], [ true, %_ZgtRK11ext_numeralS1_.exit ], [ %97, %94 ], [ false, %42 ], [ false, %38 ], [ true, %48 ], [ true, %86 ], [ true, %82 ], [ true, %53 ]
  ret i1 %.0
}